; ModuleID = '7/1107.c'
source_filename = "7/1107.c"
target datalayout = "e-m:e-p270:32:32-p271:32:32-p272:64:64-i64:64-f80:128-n8:16:32:64-S128"
target triple = "x86_64-pc-linux-gnu"

@.str = private unnamed_addr constant [4 x i8] c"%s\0A\00", align 1
@.str.1 = private unnamed_addr constant [3 x i8] c"%s\00", align 1

; Function Attrs: noinline nounwind uwtable
define dso_local i32 @main(i32 %0, i8** %1) #0 {
  %3 = alloca i32, align 4
  %4 = alloca i32, align 4
  %5 = alloca i8**, align 8
  %6 = alloca [256 x i8], align 16
  %7 = alloca [256 x i8], align 16
  %8 = alloca [256 x i8], align 16
  %9 = alloca i32, align 4
  %10 = alloca i32, align 4
  %11 = alloca i32, align 4
  %12 = alloca i32, align 4
  %13 = alloca i32, align 4
  %14 = alloca i32, align 4
  store i32 0, i32* %3, align 4
  store i32 %0, i32* %4, align 4
  store i8** %1, i8*** %5, align 8
  %15 = getelementptr inbounds [256 x i8], [256 x i8]* %6, i64 0, i64 0
  %16 = call i32 (i8*, ...) @__isoc99_scanf(i8* getelementptr inbounds ([4 x i8], [4 x i8]* @.str, i64 0, i64 0), i8* %15)
  %17 = getelementptr inbounds [256 x i8], [256 x i8]* %7, i64 0, i64 0
  %18 = call i32 (i8*, ...) @__isoc99_scanf(i8* getelementptr inbounds ([4 x i8], [4 x i8]* @.str, i64 0, i64 0), i8* %17)
  %19 = getelementptr inbounds [256 x i8], [256 x i8]* %8, i64 0, i64 0
  %20 = call i32 (i8*, ...) @__isoc99_scanf(i8* getelementptr inbounds ([3 x i8], [3 x i8]* @.str.1, i64 0, i64 0), i8* %19)
  %21 = getelementptr inbounds [256 x i8], [256 x i8]* %7, i64 0, i64 0
  %22 = call i64 @strlen(i8* %21) #3
  %23 = trunc i64 %22 to i32
  store i32 %23, i32* %9, align 4
  %24 = getelementptr inbounds [256 x i8], [256 x i8]* %6, i64 0, i64 0
  %25 = call i64 @strlen(i8* %24) #3
  %26 = trunc i64 %25 to i32
  store i32 %26, i32* %10, align 4
  %27 = getelementptr inbounds [256 x i8], [256 x i8]* %8, i64 0, i64 0
  %28 = call i64 @strlen(i8* %27) #3
  %29 = trunc i64 %28 to i32
  store i32 %29, i32* %11, align 4
  store i32 0, i32* %12, align 4
  br label %30

30:                                               ; preds = %93, %2
  %31 = load i32, i32* %12, align 4
  %32 = load i32, i32* %10, align 4
  %33 = icmp slt i32 %31, %32
  br i1 %33, label %34, label %96

34:                                               ; preds = %30
  %35 = load i32, i32* %12, align 4
  %36 = sext i32 %35 to i64
  %37 = getelementptr inbounds [256 x i8], [256 x i8]* %6, i64 0, i64 %36
  %38 = load i8, i8* %37, align 1
  %39 = sext i8 %38 to i32
  %40 = getelementptr inbounds [256 x i8], [256 x i8]* %7, i64 0, i64 0
  %41 = load i8, i8* %40, align 16
  %42 = sext i8 %41 to i32
  %43 = icmp eq i32 %39, %42
  br i1 %43, label %44, label %69

44:                                               ; preds = %34
  store i32 1, i32* %13, align 4
  br label %45

45:                                               ; preds = %65, %44
  %46 = load i32, i32* %13, align 4
  %47 = load i32, i32* %9, align 4
  %48 = icmp slt i32 %46, %47
  br i1 %48, label %49, label %68

49:                                               ; preds = %45
  %50 = load i32, i32* %13, align 4
  %51 = sext i32 %50 to i64
  %52 = getelementptr inbounds [256 x i8], [256 x i8]* %7, i64 0, i64 %51
  %53 = load i8, i8* %52, align 1
  %54 = sext i8 %53 to i32
  %55 = load i32, i32* %12, align 4
  %56 = load i32, i32* %13, align 4
  %57 = add nsw i32 %55, %56
  %58 = sext i32 %57 to i64
  %59 = getelementptr inbounds [256 x i8], [256 x i8]* %6, i64 0, i64 %58
  %60 = load i8, i8* %59, align 1
  %61 = sext i8 %60 to i32
  %62 = icmp ne i32 %54, %61
  br i1 %62, label %63, label %64

63:                                               ; preds = %49
  br label %68

64:                                               ; preds = %49
  br label %65

65:                                               ; preds = %64
  %66 = load i32, i32* %13, align 4
  %67 = add nsw i32 %66, 1
  store i32 %67, i32* %13, align 4
  br label %45

68:                                               ; preds = %63, %45
  br label %69

69:                                               ; preds = %68, %34
  %70 = load i32, i32* %13, align 4
  %71 = load i32, i32* %9, align 4
  %72 = icmp eq i32 %70, %71
  br i1 %72, label %73, label %92

73:                                               ; preds = %69
  store i32 0, i32* %14, align 4
  br label %74

74:                                               ; preds = %88, %73
  %75 = load i32, i32* %14, align 4
  %76 = load i32, i32* %11, align 4
  %77 = icmp slt i32 %75, %76
  br i1 %77, label %78, label %91

78:                                               ; preds = %74
  %79 = load i32, i32* %14, align 4
  %80 = sext i32 %79 to i64
  %81 = getelementptr inbounds [256 x i8], [256 x i8]* %8, i64 0, i64 %80
  %82 = load i8, i8* %81, align 1
  %83 = load i32, i32* %12, align 4
  %84 = load i32, i32* %14, align 4
  %85 = add nsw i32 %83, %84
  %86 = sext i32 %85 to i64
  %87 = getelementptr inbounds [256 x i8], [256 x i8]* %6, i64 0, i64 %86
  store i8 %82, i8* %87, align 1
  br label %88

88:                                               ; preds = %78
  %89 = load i32, i32* %14, align 4
  %90 = add nsw i32 %89, 1
  store i32 %90, i32* %14, align 4
  br label %74

91:                                               ; preds = %74
  br label %96

92:                                               ; preds = %69
  br label %93

93:                                               ; preds = %92
  %94 = load i32, i32* %12, align 4
  %95 = add nsw i32 %94, 1
  store i32 %95, i32* %12, align 4
  br label %30

96:                                               ; preds = %91, %30
  %97 = getelementptr inbounds [256 x i8], [256 x i8]* %6, i64 0, i64 0
  %98 = call i32 (i8*, ...) @printf(i8* getelementptr inbounds ([3 x i8], [3 x i8]* @.str.1, i64 0, i64 0), i8* %97)
  ret i32 0
}

declare dso_local i32 @__isoc99_scanf(i8*, ...) #1

; Function Attrs: nounwind readonly
declare dso_local i64 @strlen(i8*) #2

declare dso_local i32 @printf(i8*, ...) #1


!llvm.module.flags = !{!0}
!llvm.ident = !{!1}

!0 = !{i32 1, !"wchar_size", i32 4}
!1 = !{!"clang version 10.0.0-4ubuntu1 "}
